; Function Attrs: nounwind uwtable
define hidden range(i32 0, 2) i32 @gtk_load(ptr noundef %0, i32 noundef %1, i32 noundef %2) local_unnamed_addr #0 {
  %4 = load ptr, ptr @gtk, align 8
  %5 = icmp eq ptr %4, null
  br i1 %5, label %6, label %109

6:                                                ; preds = %3
  %.b17.i.i = load i1, ptr @get_libs_order.n_libs, align 4
  br i1 %.b17.i.i, label %..lr.ph.i_crit_edge.i, label %7

..lr.ph.i_crit_edge.i:                            ; preds = %6
  %.pre.i = load ptr, ptr @get_libs_order.load_order, align 8
  br label %.lr.ph.i.i

7:                                                ; preds = %6
  store i1 true, ptr @get_libs_order.n_libs, align 4
  %8 = tail call noalias dereferenceable_or_null(24) ptr @calloc(i64 noundef 3, i64 noundef 8) #5
  store ptr %8, ptr @get_libs_order.load_order, align 8
  %9 = icmp eq ptr %8, null
  br i1 %9, label %.lr.ph.i, label %.lr.ph.i.i

.lr.ph.i.i:                                       ; preds = %7, %..lr.ph.i_crit_edge.i
  %10 = phi ptr [ %.pre.i, %..lr.ph.i_crit_edge.i ], [ %8, %7 ]
  br label %11

11:                                               ; preds = %11, %.lr.ph.i.i
  %12 = phi i1 [ true, %.lr.ph.i.i ], [ false, %11 ]
  %indvars.iv.i.i = phi i64 [ 0, %.lr.ph.i.i ], [ 1, %11 ]
  %.019.i.i = phi i32 [ 0, %.lr.ph.i.i ], [ %spec.select.i.i, %11 ]
  %13 = getelementptr inbounds [2 x %struct.GtkLib], ptr @gtk_libs, i64 0, i64 %indvars.iv.i.i
  %14 = getelementptr inbounds ptr, ptr %10, i64 %indvars.iv.i.i
  store ptr %13, ptr %14, align 8
  %15 = load i32, ptr %13, align 8
  %16 = icmp eq i32 %15, 0
  %17 = trunc nuw nsw i64 %indvars.iv.i.i to i32
  %spec.select.i.i = select i1 %16, i32 %17, i32 %.019.i.i
  br i1 %12, label %11, label %._crit_edge.i.i, !llvm.loop !6

._crit_edge.i.i:                                  ; preds = %11
  %.not.i.i = icmp eq i32 %spec.select.i.i, 0
  br i1 %.not.i.i, label %get_libs_order.exit.i.preheader, label %.critedge.i.i

.critedge.i.i:                                    ; preds = %._crit_edge.i.i
  %18 = load ptr, ptr %10, align 8
  %19 = getelementptr inbounds i8, ptr %10, i64 8
  store ptr %18, ptr %19, align 8
  store ptr getelementptr inbounds (i8, ptr @gtk_libs, i64 40), ptr %10, align 8
  br label %get_libs_order.exit.i.preheader

get_libs_order.exit.i.preheader:                  ; preds = %.critedge.i.i, %._crit_edge.i.i
  br label %get_libs_order.exit.i

get_libs_order.exit.i:                            ; preds = %get_libs_order.exit.i.preheader, %29
  %.010.i = phi ptr [ %30, %29 ], [ %10, %get_libs_order.exit.i.preheader ]
  %20 = load ptr, ptr @gtk, align 8
  %.not.i = icmp eq ptr %20, null
  br i1 %.not.i, label %21, label %50

21:                                               ; preds = %get_libs_order.exit.i
  %22 = load ptr, ptr %.010.i, align 8
  %.not13.i = icmp eq ptr %22, null
  br i1 %.not13.i, label %50, label %23

23:                                               ; preds = %21
  %24 = getelementptr inbounds i8, ptr %22, i64 32
  %25 = load ptr, ptr %24, align 8
  %26 = getelementptr inbounds i8, ptr %22, i64 16
  %27 = load ptr, ptr %26, align 8
  %28 = tail call i32 %25(ptr noundef %27, i32 noundef 0) #6
  %.not14.i = icmp eq i32 %28, 0
  br i1 %.not14.i, label %29, label %get_loaded.exit

29:                                               ; preds = %23
  %30 = getelementptr inbounds i8, ptr %.010.i, i64 8
  %31 = load ptr, ptr %24, align 8
  %32 = getelementptr inbounds i8, ptr %22, i64 8
  %33 = load ptr, ptr %32, align 8
  %34 = tail call i32 %31(ptr noundef %33, i32 noundef 0) #6
  %.not15.i = icmp eq i32 %34, 0
  br i1 %.not15.i, label %get_libs_order.exit.i, label %get_loaded.exit, !llvm.loop !8

get_loaded.exit:                                  ; preds = %29, %23
  %35 = getelementptr inbounds i8, ptr %22, i64 16
  %.not37 = icmp eq i32 %2, 0
  br i1 %.not37, label %40, label %36

36:                                               ; preds = %get_loaded.exit
  %37 = load ptr, ptr @stderr, align 8
  %38 = load i32, ptr %22, align 8
  %39 = tail call i32 (ptr, ptr, ...) @fprintf(ptr noundef %37, ptr noundef nonnull @.str, i32 noundef %38) #7
  br label %40

40:                                               ; preds = %36, %get_loaded.exit
  %41 = getelementptr inbounds i8, ptr %22, i64 24
  %42 = load ptr, ptr %41, align 8
  %43 = load ptr, ptr %35, align 8
  %44 = tail call ptr %42(ptr noundef %0, ptr noundef %43) #6
  store ptr %44, ptr @gtk, align 8
  %.not38 = icmp eq ptr %44, null
  br i1 %.not38, label %45, label %.critedge

45:                                               ; preds = %40
  %46 = load ptr, ptr %41, align 8
  %47 = getelementptr inbounds i8, ptr %22, i64 8
  %48 = load ptr, ptr %47, align 8
  %49 = tail call ptr %46(ptr noundef %0, ptr noundef %48) #6
  store ptr %49, ptr @gtk, align 8
  br label %.critedge

50:                                               ; preds = %21, %get_libs_order.exit.i
  %.b17.i.pr = load i1, ptr @get_libs_order.n_libs, align 4
  br i1 %.b17.i.pr, label %..lr.ph.i_crit_edge, label %51

..lr.ph.i_crit_edge:                              ; preds = %50
  %.pre = load ptr, ptr @get_libs_order.load_order, align 8
  br label %.lr.ph.i

51:                                               ; preds = %50
  store i1 true, ptr @get_libs_order.n_libs, align 4
  %52 = tail call noalias dereferenceable_or_null(24) ptr @calloc(i64 noundef 3, i64 noundef 8) #5
  store ptr %52, ptr @get_libs_order.load_order, align 8
  %53 = icmp eq ptr %52, null
  br i1 %53, label %get_libs_order.exit.thread, label %.lr.ph.i

get_libs_order.exit.thread:                       ; preds = %51
  %54 = load ptr, ptr @gtk, align 8
  br label %.critedge

.lr.ph.i:                                         ; preds = %..lr.ph.i_crit_edge, %7, %51
  %55 = phi ptr [ %.pre, %..lr.ph.i_crit_edge ], [ null, %7 ], [ %52, %51 ]
  br label %56

56:                                               ; preds = %56, %.lr.ph.i
  %57 = phi i1 [ true, %.lr.ph.i ], [ false, %56 ]
  %indvars.iv.i = phi i64 [ 0, %.lr.ph.i ], [ 1, %56 ]
  %.019.i = phi i32 [ 0, %.lr.ph.i ], [ %spec.select.i, %56 ]
  %58 = getelementptr inbounds [2 x %struct.GtkLib], ptr @gtk_libs, i64 0, i64 %indvars.iv.i
  %59 = getelementptr inbounds ptr, ptr %55, i64 %indvars.iv.i
  store ptr %58, ptr %59, align 8
  %60 = load i32, ptr %58, align 8
  %61 = icmp eq i32 %60, %1
  %62 = trunc nuw nsw i64 %indvars.iv.i to i32
  %spec.select.i = select i1 %61, i32 %62, i32 %.019.i
  br i1 %57, label %56, label %._crit_edge.i, !llvm.loop !6

._crit_edge.i:                                    ; preds = %56
  %.not.i41 = icmp eq i32 %spec.select.i, 0
  br i1 %.not.i41, label %get_libs_order.exit, label %.critedge.i

.critedge.i:                                      ; preds = %._crit_edge.i
  %63 = load ptr, ptr %55, align 8
  %64 = getelementptr inbounds i8, ptr %55, i64 8
  store ptr %63, ptr %64, align 8
  store ptr getelementptr inbounds (i8, ptr @gtk_libs, i64 40), ptr %55, align 8
  br label %get_libs_order.exit

get_libs_order.exit:                              ; preds = %._crit_edge.i, %.critedge.i
  %65 = load ptr, ptr @gtk, align 8
  %66 = icmp eq ptr %65, null
  br i1 %66, label %.lr.ph, label %.critedge

.lr.ph:                                           ; preds = %get_libs_order.exit
  %67 = icmp eq i32 %1, 0
  %.not35 = icmp eq i32 %2, 0
  %68 = load ptr, ptr %55, align 8
  %.not3457 = icmp eq ptr %68, null
  br i1 %.not3457, label %.critedge, label %.lr.ph59

69:                                               ; preds = %97
  %70 = load ptr, ptr %73, align 8
  %.not34 = icmp eq ptr %70, null
  br i1 %.not34, label %.critedge, label %.lr.ph59, !llvm.loop !9

.lr.ph59:                                         ; preds = %.lr.ph, %69
  %71 = phi ptr [ %70, %69 ], [ %68, %.lr.ph ]
  %.04758 = phi ptr [ %73, %69 ], [ %55, %.lr.ph ]
  %72 = phi ptr [ %98, %69 ], [ null, %.lr.ph ]
  %73 = getelementptr inbounds i8, ptr %.04758, i64 8
  br i1 %67, label %77, label %74

74:                                               ; preds = %.lr.ph59
  %75 = load i32, ptr %71, align 8
  %76 = icmp eq i32 %75, %1
  br i1 %76, label %77, label %97

77:                                               ; preds = %74, %.lr.ph59
  br i1 %.not35, label %82, label %78

78:                                               ; preds = %77
  %79 = load ptr, ptr @stderr, align 8
  %80 = load i32, ptr %71, align 8
  %81 = tail call i32 (ptr, ptr, ...) @fprintf(ptr noundef %79, ptr noundef nonnull @.str, i32 noundef %80) #7
  br label %82

82:                                               ; preds = %78, %77
  %83 = getelementptr inbounds i8, ptr %71, i64 24
  %84 = load ptr, ptr %83, align 8
  %85 = getelementptr inbounds i8, ptr %71, i64 16
  %86 = load ptr, ptr %85, align 8
  %87 = tail call ptr %84(ptr noundef %0, ptr noundef %86) #6
  store ptr %87, ptr @gtk, align 8
  %.not36 = icmp eq ptr %87, null
  br i1 %.not36, label %88, label %.critedge

88:                                               ; preds = %82
  %89 = load ptr, ptr %83, align 8
  %90 = getelementptr inbounds i8, ptr %71, i64 8
  %91 = load ptr, ptr %90, align 8
  %92 = tail call ptr %89(ptr noundef %0, ptr noundef %91) #6
  store ptr %92, ptr @gtk, align 8
  %93 = icmp ne ptr %92, null
  %or.cond3 = select i1 %.not35, i1 true, i1 %93
  br i1 %or.cond3, label %97, label %94

94:                                               ; preds = %88
  %95 = load ptr, ptr @stderr, align 8
  %96 = tail call i64 @fwrite(ptr nonnull @.str.1, i64 11, i64 1, ptr %95) #8
  %.pre50 = load ptr, ptr @gtk, align 8
  br label %97

97:                                               ; preds = %88, %94, %74
  %98 = phi ptr [ %92, %88 ], [ %.pre50, %94 ], [ %72, %74 ]
  %99 = phi ptr [ %92, %88 ], [ %.pre50, %94 ], [ null, %74 ]
  %100 = icmp eq ptr %99, null
  br i1 %100, label %69, label %.critedge, !llvm.loop !9

.critedge:                                        ; preds = %69, %97, %82, %.lr.ph, %get_libs_order.exit.thread, %get_libs_order.exit, %40, %45
  %101 = phi ptr [ %44, %40 ], [ %49, %45 ], [ %65, %get_libs_order.exit ], [ %54, %get_libs_order.exit.thread ], [ null, %.lr.ph ], [ %87, %82 ], [ %98, %97 ], [ %98, %69 ]
  %.1 = phi ptr [ %22, %40 ], [ %22, %45 ], [ null, %get_libs_order.exit ], [ null, %get_libs_order.exit.thread ], [ null, %.lr.ph ], [ %71, %82 ], [ %71, %97 ], [ %71, %69 ]
  %.not39 = icmp eq i32 %2, 0
  br i1 %.not39, label %109, label %102

102:                                              ; preds = %.critedge
  %.not40 = icmp eq ptr %101, null
  %103 = load ptr, ptr @stderr, align 8
  br i1 %.not40, label %107, label %104

104:                                              ; preds = %102
  %105 = load i32, ptr %.1, align 8
  %106 = tail call i32 (ptr, ptr, ...) @fprintf(ptr noundef %103, ptr noundef nonnull @.str.2, i32 noundef %105) #7
  br label %109

107:                                              ; preds = %102
  %108 = tail call i64 @fwrite(ptr nonnull @.str.3, i64 28, i64 1, ptr %103) #8
  br label %109

109:                                              ; preds = %.critedge, %107, %104, %3
  %110 = load ptr, ptr @gtk, align 8
  %111 = icmp ne ptr %110, null
  %112 = zext i1 %111 to i32
  ret i32 %112
}